target datalayout = "e-m:e-p270:32:32-p271:32:32-p272:64:64-i64:64-i128:128-f80:128-n8:16:32:64-S128"
target triple = "x86_64-pc-linux-gnu"

%"class.Ipopt::CGPenaltyLSAcceptor" = type { %"class.Ipopt::BacktrackingLSAcceptor.base", double, double, double, double, double, double, double, double, double, double, double, double, double, double, double, double, double, i8, double, double, i32, double, i32, i32, double, i32, double, %"class.Ipopt::SmartPtr.3", double, double, double, double, double, double, double, %"class.Ipopt::SmartPtr.3", i8, %"class.Ipopt::PiecewisePenalty", i8, i32, %"class.Ipopt::SmartPtr.4" }
%"class.Ipopt::BacktrackingLSAcceptor.base" = type { %"class.Ipopt::AlgorithmStrategyObject.base" }
%"class.Ipopt::AlgorithmStrategyObject.base" = type <{ %"class.Ipopt::ReferencedObject.base", [4 x i8], %"class.Ipopt::SmartPtr", %"class.Ipopt::SmartPtr.0", %"class.Ipopt::SmartPtr.1", %"class.Ipopt::SmartPtr.2", i8 }>
%"class.Ipopt::ReferencedObject.base" = type <{ ptr, i32 }>
%"class.Ipopt::SmartPtr" = type { ptr }
%"class.Ipopt::SmartPtr.0" = type { ptr }
%"class.Ipopt::SmartPtr.1" = type { ptr }
%"class.Ipopt::SmartPtr.2" = type { ptr }
%"class.Ipopt::SmartPtr.3" = type { ptr }
%"class.Ipopt::PiecewisePenalty" = type { i32, double, i32, %"class.std::vector" }
%"class.std::vector" = type { %"struct.std::_Vector_base" }
%"struct.std::_Vector_base" = type { %"struct.std::_Vector_base<Ipopt::PiecewisePenEntry, std::allocator<Ipopt::PiecewisePenEntry>>::_Vector_impl" }
%"struct.std::_Vector_base<Ipopt::PiecewisePenEntry, std::allocator<Ipopt::PiecewisePenEntry>>::_Vector_impl" = type { %"struct.std::_Vector_base<Ipopt::PiecewisePenEntry, std::allocator<Ipopt::PiecewisePenEntry>>::_Vector_impl_data" }
%"struct.std::_Vector_base<Ipopt::PiecewisePenEntry, std::allocator<Ipopt::PiecewisePenEntry>>::_Vector_impl_data" = type { ptr, ptr, ptr }
%"class.Ipopt::SmartPtr.4" = type { ptr }
%"class.Ipopt::AlgorithmStrategyObject" = type <{ %"class.Ipopt::ReferencedObject.base", [4 x i8], %"class.Ipopt::SmartPtr", %"class.Ipopt::SmartPtr.0", %"class.Ipopt::SmartPtr.1", %"class.Ipopt::SmartPtr.2", i8, [7 x i8] }>
%"class.Ipopt::CachedResults.28" = type { ptr, i32, ptr }
%"class.Ipopt::SmartPtr.33" = type { ptr }
%"class.Ipopt::IpoptCalculatedQuantities" = type <{ %"class.Ipopt::ReferencedObject.base", [4 x i8], %"class.Ipopt::SmartPtr.0", %"class.Ipopt::SmartPtr.1", %"class.Ipopt::SmartPtr.27", double, double, double, i32, i8, [3 x i8], double, %"class.Ipopt::CachedResults", %"class.Ipopt::CachedResults", %"class.Ipopt::CachedResults", %"class.Ipopt::CachedResults", %"class.Ipopt::CachedResults", %"class.Ipopt::CachedResults", %"class.Ipopt::CachedResults", %"class.Ipopt::CachedResults", i32, i32, i32, i32, %"class.Ipopt::CachedResults.28", %"class.Ipopt::CachedResults.28", %"class.Ipopt::CachedResults.29", %"class.Ipopt::CachedResults.29", %"class.Ipopt::CachedResults.28", %"class.Ipopt::CachedResults.28", %"class.Ipopt::CachedResults.29", %"class.Ipopt::CachedResults.29", %"class.Ipopt::CachedResults.29", %"class.Ipopt::CachedResults.29", %"class.Ipopt::CachedResults.29", %"class.Ipopt::CachedResults.29", %"class.Ipopt::CachedResults.29", %"class.Ipopt::CachedResults.29", %"class.Ipopt::CachedResults.29", %"class.Ipopt::CachedResults.29", %"class.Ipopt::CachedResults.30", %"class.Ipopt::CachedResults.30", %"class.Ipopt::CachedResults.30", %"class.Ipopt::CachedResults.30", %"class.Ipopt::CachedResults.29", %"class.Ipopt::CachedResults.29", %"class.Ipopt::CachedResults.29", %"class.Ipopt::CachedResults.29", %"class.Ipopt::CachedResults.29", %"class.Ipopt::CachedResults.29", %"class.Ipopt::CachedResults.28", %"class.Ipopt::CachedResults.28", %"class.Ipopt::CachedResults.28", %"class.Ipopt::CachedResults.28", %"class.Ipopt::CachedResults.28", %"class.Ipopt::CachedResults.31", %"class.Ipopt::CachedResults.29", %"class.Ipopt::CachedResults.29", %"class.Ipopt::CachedResults.29", %"class.Ipopt::CachedResults.29", %"class.Ipopt::CachedResults.29", %"class.Ipopt::CachedResults.29", %"class.Ipopt::CachedResults.29", %"class.Ipopt::CachedResults.29", %"class.Ipopt::CachedResults.29", %"class.Ipopt::CachedResults.29", %"class.Ipopt::CachedResults.29", %"class.Ipopt::CachedResults.29", %"class.Ipopt::CachedResults.29", %"class.Ipopt::CachedResults.29", %"class.Ipopt::CachedResults.29", %"class.Ipopt::CachedResults.29", %"class.Ipopt::CachedResults.29", %"class.Ipopt::CachedResults.29", %"class.Ipopt::CachedResults.28", %"class.Ipopt::CachedResults.28", %"class.Ipopt::CachedResults.28", %"class.Ipopt::CachedResults.28", %"class.Ipopt::CachedResults.28", %"class.Ipopt::CachedResults.28", %"class.Ipopt::CachedResults.28", %"class.Ipopt::CachedResults.28", %"class.Ipopt::CachedResults.28", %"class.Ipopt::CachedResults.28", %"class.Ipopt::CachedResults.28", %"class.Ipopt::CachedResults.28", %"class.Ipopt::CachedResults.28", %"class.Ipopt::CachedResults.32", %"class.Ipopt::CachedResults.28", %"class.Ipopt::CachedResults", %"class.Ipopt::CachedResults", %"class.Ipopt::CachedResults.28", %"class.Ipopt::CachedResults.28", %"class.Ipopt::CachedResults.28", %"class.Ipopt::CachedResults.29", %"class.Ipopt::CachedResults.29", %"class.Ipopt::CachedResults.28", %"class.Ipopt::CachedResults.28", %"class.Ipopt::CachedResults.28", %"class.Ipopt::SmartPtr.33", %"class.Ipopt::SmartPtr.33", %"class.Ipopt::SmartPtr.33", %"class.Ipopt::SmartPtr.33", %"class.Ipopt::SmartPtr.33", %"class.Ipopt::SmartPtr.33", %"class.Ipopt::SmartPtr.33", %"class.Ipopt::SmartPtr.33", %"class.Ipopt::SmartPtr.33", %"class.Ipopt::SmartPtr.33", %"class.Ipopt::SmartPtr.33", %"class.Ipopt::SmartPtr.33", i8, [7 x i8] }>
%"class.Ipopt::SmartPtr.27" = type { ptr }
%"class.Ipopt::CachedResults.30" = type { ptr, i32, ptr }
%"class.Ipopt::CachedResults.31" = type { ptr, i32, ptr }
%"class.Ipopt::CachedResults.32" = type { ptr, i32, ptr }
%"class.Ipopt::CachedResults" = type { ptr, i32, ptr }
%"class.Ipopt::CachedResults.29" = type { ptr, i32, ptr }

@.str.35 = private unnamed_addr constant [70 x i8] c"Checking acceptability for trial step size alpha_primal_test=%13.6e:\0A\00", align 1
@.str.36 = private unnamed_addr constant [69 x i8] c" New values of penalty function     = %23.16e  (reference %23.16e):\0A\00", align 1
@.str.37 = private unnamed_addr constant [42 x i8] c"curr_barr  = %23.16e curr_inf  = %23.16e\0A\00", align 1
@.str.38 = private unnamed_addr constant [42 x i8] c"trial_barr = %23.16e trial_inf = %23.16e\0A\00", align 1

; Function Attrs: mustprogress nounwind uwtable
define linkonce_odr noundef nonnull align 8 dereferenceable(12) ptr @_ZNK5Ipopt8SmartPtrINS_17IpoptAdditionalCqEEdeEv(ptr noundef nonnull align 8 dereferenceable(8) %0) #5 comdat align 2 {
  %2 = alloca ptr, align 8
  store ptr %0, ptr %2, align 8, !tbaa !247
  %3 = load ptr, ptr %2, align 8
  %4 = getelementptr inbounds nuw %"class.Ipopt::SmartPtr.27", ptr %3, i32 0, i32 0
  %5 = load ptr, ptr %4, align 8, !tbaa !249
  ret ptr %5
}

; Function Attrs: inlinehint mustprogress nounwind uwtable
define linkonce_odr noundef double @_ZSt3absd(double noundef %0) #10 comdat {
  %2 = alloca double, align 8
  store double %0, ptr %2, align 8, !tbaa !98
  %3 = load double, ptr %2, align 8, !tbaa !98
  %4 = call double @llvm.fabs.f64(double %3)
  ret double %4
}

; Function Attrs: mustprogress nounwind uwtable
define linkonce_odr noundef double @_ZNSt14numeric_limitsIdE7epsilonEv() #5 comdat align 2 {
  ret double 0x3CB0000000000000
}

; Function Attrs: mustprogress nounwind uwtable
define linkonce_odr noundef nonnull align 8 dereferenceable(2185) ptr @_ZNK5Ipopt8SmartPtrINS_25IpoptCalculatedQuantitiesEEdeEv(ptr noundef nonnull align 8 dereferenceable(8) %0) #5 comdat align 2 {
  %2 = alloca ptr, align 8
  store ptr %0, ptr %2, align 8, !tbaa !200
  %3 = load ptr, ptr %2, align 8
  %4 = getelementptr inbounds nuw %"class.Ipopt::SmartPtr.2", ptr %3, i32 0, i32 0
  %5 = load ptr, ptr %4, align 8, !tbaa !202
  ret ptr %5
}

; Function Attrs: mustprogress nounwind uwtable
define linkonce_odr noundef nonnull align 8 dereferenceable(40) ptr @_ZNK5Ipopt8SmartPtrIKNS_10JournalistEEdeEv(ptr noundef nonnull align 8 dereferenceable(8) %0) #5 comdat align 2 {
  %2 = alloca ptr, align 8
  store ptr %0, ptr %2, align 8, !tbaa !191
  %3 = load ptr, ptr %2, align 8
  %4 = getelementptr inbounds nuw %"class.Ipopt::SmartPtr", ptr %3, i32 0, i32 0
  %5 = load ptr, ptr %4, align 8, !tbaa !193
  ret ptr %5
}

; Function Attrs: mustprogress uwtable
define linkonce_odr noundef nonnull align 8 dereferenceable(12) ptr @_ZN5Ipopt25IpoptCalculatedQuantities12AdditionalCqEv(ptr noundef nonnull align 8 dereferenceable(2185) %0) #4 comdat align 2 {
  %2 = alloca ptr, align 8
  store ptr %0, ptr %2, align 8, !tbaa !246
  %3 = load ptr, ptr %2, align 8
  %4 = getelementptr inbounds nuw %"class.Ipopt::IpoptCalculatedQuantities", ptr %3, i32 0, i32 4
  %5 = call noundef nonnull align 8 dereferenceable(12) ptr @_ZNK5Ipopt8SmartPtrINS_17IpoptAdditionalCqEEdeEv(ptr noundef nonnull align 8 dereferenceable(8) %4)
  ret ptr %5
}

; Function Attrs: mustprogress uwtable
define noundef zeroext i1 @_ZN5Ipopt19CGPenaltyLSAcceptor10Compare_leEddd(double noundef %0, double noundef %1, double noundef %2) #4 align 2 {
  %4 = alloca double, align 8
  %5 = alloca double, align 8
  %6 = alloca double, align 8
  %7 = alloca double, align 8
  store double %0, ptr %4, align 8, !tbaa !98
  store double %1, ptr %5, align 8, !tbaa !98
  store double %2, ptr %6, align 8, !tbaa !98
  call void @llvm.lifetime.start.p0(i64 8, ptr %7) #3
  %8 = call noundef double @_ZNSt14numeric_limitsIdE7epsilonEv() #3
  store double %8, ptr %7, align 8, !tbaa !98
  %9 = load double, ptr %4, align 8, !tbaa !98
  %10 = load double, ptr %5, align 8, !tbaa !98
  %11 = fsub double %9, %10
  %12 = load double, ptr %7, align 8, !tbaa !98
  %13 = fmul double 1.000000e+01, %12
  %14 = load double, ptr %6, align 8, !tbaa !98
  %15 = call noundef double @_ZSt3absd(double noundef %14)
  %16 = fmul double %13, %15
  %17 = fcmp ole double %11, %16
  call void @llvm.lifetime.end.p0(i64 8, ptr %7) #3
  ret i1 %17
}

; Function Attrs: mustprogress uwtable
define linkonce_odr noundef nonnull align 8 dereferenceable(2185) ptr @_ZNK5Ipopt23AlgorithmStrategyObject4IpCqEv(ptr noundef nonnull align 8 dereferenceable(49) %0) #4 comdat align 2 {
  %2 = alloca ptr, align 8
  store ptr %0, ptr %2, align 8, !tbaa !73
  %3 = load ptr, ptr %2, align 8
  %4 = getelementptr inbounds nuw %"class.Ipopt::AlgorithmStrategyObject", ptr %3, i32 0, i32 5
  %5 = call noundef nonnull align 8 dereferenceable(2185) ptr @_ZNK5Ipopt8SmartPtrINS_25IpoptCalculatedQuantitiesEEdeEv(ptr noundef nonnull align 8 dereferenceable(8) %4)
  ret ptr %5
}

; Function Attrs: mustprogress uwtable
define linkonce_odr noundef nonnull align 8 dereferenceable(40) ptr @_ZNK5Ipopt23AlgorithmStrategyObject5JnlstEv(ptr noundef nonnull align 8 dereferenceable(49) %0) #4 comdat align 2 {
  %2 = alloca ptr, align 8
  store ptr %0, ptr %2, align 8, !tbaa !73
  %3 = load ptr, ptr %2, align 8
  %4 = getelementptr inbounds nuw %"class.Ipopt::AlgorithmStrategyObject", ptr %3, i32 0, i32 2
  %5 = call noundef nonnull align 8 dereferenceable(40) ptr @_ZNK5Ipopt8SmartPtrIKNS_10JournalistEEdeEv(ptr noundef nonnull align 8 dereferenceable(8) %4)
  ret ptr %5
}

; Function Attrs: mustprogress uwtable
define linkonce_odr noundef nonnull align 8 dereferenceable(241) ptr @_ZN5Ipopt19CGPenaltyLSAcceptor7CGPenCqEv(ptr noundef nonnull align 8 dereferenceable(408) %0) #4 comdat align 2 {
  %2 = alloca ptr, align 8
  %3 = alloca ptr, align 8
  store ptr %0, ptr %2, align 8, !tbaa !3
  %4 = load ptr, ptr %2, align 8
  call void @llvm.lifetime.start.p0(i64 8, ptr %3) #3
  %5 = call noundef nonnull align 8 dereferenceable(2185) ptr @_ZNK5Ipopt23AlgorithmStrategyObject4IpCqEv(ptr noundef nonnull align 8 dereferenceable(49) %4)
  %6 = call noundef nonnull align 8 dereferenceable(12) ptr @_ZN5Ipopt25IpoptCalculatedQuantities12AdditionalCqEv(ptr noundef nonnull align 8 dereferenceable(2185) %5)
  store ptr %6, ptr %3, align 8, !tbaa !106
  %7 = load ptr, ptr %3, align 8, !tbaa !106
  call void @llvm.lifetime.end.p0(i64 8, ptr %3) #3
  ret ptr %7
}

; Function Attrs: mustprogress uwtable
define noundef zeroext i1 @_ZN5Ipopt19CGPenaltyLSAcceptor11ArmijoHoldsEd(ptr noundef nonnull align 8 dereferenceable(408) %0, double noundef %1) #4 align 2 {
  %3 = alloca ptr, align 8
  %4 = alloca double, align 8
  %5 = alloca i8, align 1
  %6 = alloca double, align 8
  store ptr %0, ptr %3, align 8, !tbaa !3
  store double %1, ptr %4, align 8, !tbaa !98
  %7 = load ptr, ptr %3, align 8
  call void @llvm.lifetime.start.p0(i64 1, ptr %5) #3
  store i8 0, ptr %5, align 1, !tbaa !94
  call void @llvm.lifetime.start.p0(i64 8, ptr %6) #3
  %8 = call noundef nonnull align 8 dereferenceable(241) ptr @_ZN5Ipopt19CGPenaltyLSAcceptor7CGPenCqEv(ptr noundef nonnull align 8 dereferenceable(408) %7)
  %9 = call noundef double @_ZN5Ipopt11CGPenaltyCq22trial_penalty_functionEv(ptr noundef nonnull align 8 dereferenceable(241) %8)
  store double %9, ptr %6, align 8, !tbaa !98
  %10 = call noundef nonnull align 8 dereferenceable(40) ptr @_ZNK5Ipopt23AlgorithmStrategyObject5JnlstEv(ptr noundef nonnull align 8 dereferenceable(49) %7)
  %11 = load double, ptr %4, align 8, !tbaa !98
  %12 = load ptr, ptr %10, align 8, !tbaa !10
  %13 = getelementptr inbounds ptr, ptr %12, i64 2
  %14 = load ptr, ptr %13, align 8
  call void (ptr, i32, i32, ptr, ...) %14(ptr noundef nonnull align 8 dereferenceable(40) %10, i32 noundef 6, i32 noundef 8, ptr noundef @.str.35, double noundef %11)
  %15 = call noundef nonnull align 8 dereferenceable(40) ptr @_ZNK5Ipopt23AlgorithmStrategyObject5JnlstEv(ptr noundef nonnull align 8 dereferenceable(49) %7)
  %16 = load double, ptr %6, align 8, !tbaa !98
  %17 = getelementptr inbounds nuw %"class.Ipopt::CGPenaltyLSAcceptor", ptr %7, i32 0, i32 31
  %18 = load double, ptr %17, align 8, !tbaa !99
  %19 = load ptr, ptr %15, align 8, !tbaa !10
  %20 = getelementptr inbounds ptr, ptr %19, i64 2
  %21 = load ptr, ptr %20, align 8
  call void (ptr, i32, i32, ptr, ...) %21(ptr noundef nonnull align 8 dereferenceable(40) %15, i32 noundef 6, i32 noundef 8, ptr noundef @.str.36, double noundef %16, double noundef %18)
  %22 = call noundef nonnull align 8 dereferenceable(40) ptr @_ZNK5Ipopt23AlgorithmStrategyObject5JnlstEv(ptr noundef nonnull align 8 dereferenceable(49) %7)
  %23 = load ptr, ptr %22, align 8, !tbaa !10
  %24 = getelementptr inbounds ptr, ptr %23, i64 7
  %25 = load ptr, ptr %24, align 8
  %26 = call noundef zeroext i1 %25(ptr noundef nonnull align 8 dereferenceable(40) %22, i32 noundef 6, i32 noundef 8)
  br i1 %26, label %27, label %56

27:                                               ; preds = %2
  %28 = call noundef nonnull align 8 dereferenceable(40) ptr @_ZNK5Ipopt23AlgorithmStrategyObject5JnlstEv(ptr noundef nonnull align 8 dereferenceable(49) %7)
  %29 = call noundef nonnull align 8 dereferenceable(2185) ptr @_ZNK5Ipopt23AlgorithmStrategyObject4IpCqEv(ptr noundef nonnull align 8 dereferenceable(49) %7)
  %30 = load ptr, ptr %29, align 8, !tbaa !10
  %31 = getelementptr inbounds ptr, ptr %30, i64 6
  %32 = load ptr, ptr %31, align 8
  %33 = call noundef double %32(ptr noundef nonnull align 8 dereferenceable(2185) %29)
  %34 = call noundef nonnull align 8 dereferenceable(2185) ptr @_ZNK5Ipopt23AlgorithmStrategyObject4IpCqEv(ptr noundef nonnull align 8 dereferenceable(49) %7)
  %35 = load ptr, ptr %34, align 8, !tbaa !10
  %36 = getelementptr inbounds ptr, ptr %35, i64 8
  %37 = load ptr, ptr %36, align 8
  %38 = call noundef double %37(ptr noundef nonnull align 8 dereferenceable(2185) %34)
  %39 = load ptr, ptr %28, align 8, !tbaa !10
  %40 = getelementptr inbounds ptr, ptr %39, i64 2
  %41 = load ptr, ptr %40, align 8
  call void (ptr, i32, i32, ptr, ...) %41(ptr noundef nonnull align 8 dereferenceable(40) %28, i32 noundef 6, i32 noundef 8, ptr noundef @.str.37, double noundef %33, double noundef %38)
  %42 = call noundef nonnull align 8 dereferenceable(40) ptr @_ZNK5Ipopt23AlgorithmStrategyObject5JnlstEv(ptr noundef nonnull align 8 dereferenceable(49) %7)
  %43 = call noundef nonnull align 8 dereferenceable(2185) ptr @_ZNK5Ipopt23AlgorithmStrategyObject4IpCqEv(ptr noundef nonnull align 8 dereferenceable(49) %7)
  %44 = load ptr, ptr %43, align 8, !tbaa !10
  %45 = getelementptr inbounds ptr, ptr %44, i64 7
  %46 = load ptr, ptr %45, align 8
  %47 = call noundef double %46(ptr noundef nonnull align 8 dereferenceable(2185) %43)
  %48 = call noundef nonnull align 8 dereferenceable(2185) ptr @_ZNK5Ipopt23AlgorithmStrategyObject4IpCqEv(ptr noundef nonnull align 8 dereferenceable(49) %7)
  %49 = load ptr, ptr %48, align 8, !tbaa !10
  %50 = getelementptr inbounds ptr, ptr %49, i64 9
  %51 = load ptr, ptr %50, align 8
  %52 = call noundef double %51(ptr noundef nonnull align 8 dereferenceable(2185) %48)
  %53 = load ptr, ptr %42, align 8, !tbaa !10
  %54 = getelementptr inbounds ptr, ptr %53, i64 2
  %55 = load ptr, ptr %54, align 8
  call void (ptr, i32, i32, ptr, ...) %55(ptr noundef nonnull align 8 dereferenceable(40) %42, i32 noundef 6, i32 noundef 8, ptr noundef @.str.38, double noundef %47, double noundef %52)
  br label %56

56:                                               ; preds = %27, %2
  %57 = load double, ptr %6, align 8, !tbaa !98
  %58 = getelementptr inbounds nuw %"class.Ipopt::CGPenaltyLSAcceptor", ptr %7, i32 0, i32 31
  %59 = load double, ptr %58, align 8, !tbaa !99
  %60 = fsub double %57, %59
  %61 = getelementptr inbounds nuw %"class.Ipopt::CGPenaltyLSAcceptor", ptr %7, i32 0, i32 1
  %62 = load double, ptr %61, align 8, !tbaa !113
  %63 = load double, ptr %4, align 8, !tbaa !98
  %64 = fmul double %62, %63
  %65 = getelementptr inbounds nuw %"class.Ipopt::CGPenaltyLSAcceptor", ptr %7, i32 0, i32 32
  %66 = load double, ptr %65, align 8, !tbaa !101
  %67 = fmul double %64, %66
  %68 = getelementptr inbounds nuw %"class.Ipopt::CGPenaltyLSAcceptor", ptr %7, i32 0, i32 31
  %69 = load double, ptr %68, align 8, !tbaa !99
  %70 = call noundef zeroext i1 @_ZN5Ipopt19CGPenaltyLSAcceptor10Compare_leEddd(double noundef %60, double noundef %67, double noundef %69)
  %71 = zext i1 %70 to i8
  store i8 %71, ptr %5, align 1, !tbaa !94
  %72 = load i8, ptr %5, align 1, !tbaa !94, !range !96, !noundef !97
  %73 = trunc i8 %72 to i1
  call void @llvm.lifetime.end.p0(i64 8, ptr %6) #3
  call void @llvm.lifetime.end.p0(i64 1, ptr %5) #3
  ret i1 %73
}