; Function Attrs: mustprogress uwtable
define noundef zeroext i1 @_ZN5Ipopt19CGPenaltyLSAcceptor11ArmijoHoldsEd(ptr noundef nonnull readonly align 8 captures(none) dereferenceable(408) %0, double noundef %1) local_unnamed_addr #3 align 2 {
  %3 = getelementptr inbounds nuw i8, ptr %0, i64 40
  %4 = load ptr, ptr %3, align 8, !tbaa !21
  %5 = getelementptr inbounds nuw i8, ptr %4, i64 32
  %6 = load ptr, ptr %5, align 8, !tbaa !86
  %7 = tail call noundef double @_ZN5Ipopt11CGPenaltyCq22trial_penalty_functionEv(ptr noundef nonnull align 8 dereferenceable(241) %6)
  %8 = getelementptr inbounds nuw i8, ptr %0, i64 16
  %9 = load ptr, ptr %8, align 8, !tbaa !30
  %10 = load ptr, ptr %9, align 8, !tbaa !8
  %11 = getelementptr inbounds nuw i8, ptr %10, i64 16
  %12 = load ptr, ptr %11, align 8
  tail call void (ptr, i32, i32, ptr, ...) %12(ptr noundef nonnull align 8 dereferenceable(40) %9, i32 noundef 6, i32 noundef 8, ptr noundef nonnull @.str.35, double noundef %1)
  %13 = load ptr, ptr %8, align 8, !tbaa !30
  %14 = getelementptr inbounds nuw i8, ptr %0, i64 288
  %15 = load double, ptr %14, align 8, !tbaa !89
  %16 = load ptr, ptr %13, align 8, !tbaa !8
  %17 = getelementptr inbounds nuw i8, ptr %16, i64 16
  %18 = load ptr, ptr %17, align 8
  tail call void (ptr, i32, i32, ptr, ...) %18(ptr noundef nonnull align 8 dereferenceable(40) %13, i32 noundef 6, i32 noundef 8, ptr noundef nonnull @.str.36, double noundef %7, double noundef %15)
  %19 = load ptr, ptr %8, align 8, !tbaa !30
  %20 = load ptr, ptr %19, align 8, !tbaa !8
  %21 = getelementptr inbounds nuw i8, ptr %20, i64 56
  %22 = load ptr, ptr %21, align 8
  %23 = tail call noundef zeroext i1 %22(ptr noundef nonnull align 8 dereferenceable(40) %19, i32 noundef 6, i32 noundef 8)
  br i1 %23, label %24, label %53

24:                                               ; preds = %2
  %25 = load ptr, ptr %8, align 8, !tbaa !30
  %26 = load ptr, ptr %3, align 8, !tbaa !21
  %27 = load ptr, ptr %26, align 8, !tbaa !8
  %28 = getelementptr inbounds nuw i8, ptr %27, i64 48
  %29 = load ptr, ptr %28, align 8
  %30 = tail call noundef double %29(ptr noundef nonnull align 8 dereferenceable(2185) %26)
  %31 = load ptr, ptr %3, align 8, !tbaa !21
  %32 = load ptr, ptr %31, align 8, !tbaa !8
  %33 = getelementptr inbounds nuw i8, ptr %32, i64 64
  %34 = load ptr, ptr %33, align 8
  %35 = tail call noundef double %34(ptr noundef nonnull align 8 dereferenceable(2185) %31)
  %36 = load ptr, ptr %25, align 8, !tbaa !8
  %37 = getelementptr inbounds nuw i8, ptr %36, i64 16
  %38 = load ptr, ptr %37, align 8
  tail call void (ptr, i32, i32, ptr, ...) %38(ptr noundef nonnull align 8 dereferenceable(40) %25, i32 noundef 6, i32 noundef 8, ptr noundef nonnull @.str.37, double noundef %30, double noundef %35)
  %39 = load ptr, ptr %8, align 8, !tbaa !30
  %40 = load ptr, ptr %3, align 8, !tbaa !21
  %41 = load ptr, ptr %40, align 8, !tbaa !8
  %42 = getelementptr inbounds nuw i8, ptr %41, i64 56
  %43 = load ptr, ptr %42, align 8
  %44 = tail call noundef double %43(ptr noundef nonnull align 8 dereferenceable(2185) %40)
  %45 = load ptr, ptr %3, align 8, !tbaa !21
  %46 = load ptr, ptr %45, align 8, !tbaa !8
  %47 = getelementptr inbounds nuw i8, ptr %46, i64 72
  %48 = load ptr, ptr %47, align 8
  %49 = tail call noundef double %48(ptr noundef nonnull align 8 dereferenceable(2185) %45)
  %50 = load ptr, ptr %39, align 8, !tbaa !8
  %51 = getelementptr inbounds nuw i8, ptr %50, i64 16
  %52 = load ptr, ptr %51, align 8
  tail call void (ptr, i32, i32, ptr, ...) %52(ptr noundef nonnull align 8 dereferenceable(40) %39, i32 noundef 6, i32 noundef 8, ptr noundef nonnull @.str.38, double noundef %44, double noundef %49)
  br label %53

53:                                               ; preds = %24, %2
  %54 = load double, ptr %14, align 8, !tbaa !89
  %55 = fsub double %7, %54
  %56 = getelementptr inbounds nuw i8, ptr %0, i64 56
  %57 = load double, ptr %56, align 8, !tbaa !99
  %58 = fmul double %1, %57
  %59 = getelementptr inbounds nuw i8, ptr %0, i64 296
  %60 = load double, ptr %59, align 8, !tbaa !92
  %61 = fmul double %58, %60
  %62 = fsub double %55, %61
  %63 = tail call noundef double @llvm.fabs.f64(double %54)
  %64 = fmul double %63, 0x3CE4000000000000
  %65 = fcmp ole double %62, %64
  ret i1 %65
}